; Function Attrs: mustprogress uwtable
define noundef zeroext i1 @_ZN14dtPathCorridor18moveTargetPositionEPKfP14dtNavMeshQueryPK13dtQueryFilter(ptr noundef nonnull align 8 dereferenceable(40) %0, ptr noundef %1, ptr noundef %2, ptr noundef %3) local_unnamed_addr #2 align 2 {
  %5 = alloca [3 x float], align 4
  %6 = alloca [16 x i32], align 16
  %7 = alloca i32, align 4
  %8 = tail call noundef ptr @_Z21dtAssertFailGetCustomv()
  %9 = icmp ne ptr %8, null
  %10 = getelementptr inbounds nuw i8, ptr %0, i64 24
  %11 = load ptr, ptr %10, align 8
  %.not = icmp eq ptr %11, null
  %or.cond = select i1 %9, i1 %.not, i1 false
  br i1 %or.cond, label %12, label %13

12:                                               ; preds = %4
  tail call void %8(ptr noundef nonnull @.str.3, ptr noundef nonnull @.str.1, i32 noundef 479)
  br label %13

13:                                               ; preds = %12, %4
  %14 = tail call noundef ptr @_Z21dtAssertFailGetCustomv()
  %15 = icmp ne ptr %14, null
  %16 = getelementptr inbounds nuw i8, ptr %0, i64 32
  %17 = load i32, ptr %16, align 8
  %.not11 = icmp eq i32 %17, 0
  %or.cond14 = select i1 %15, i1 %.not11, i1 false
  br i1 %or.cond14, label %18, label %19

18:                                               ; preds = %13
  tail call void %14(ptr noundef nonnull @.str.4, ptr noundef nonnull @.str.1, i32 noundef 480)
  %.pre = load i32, ptr %16, align 8
  br label %19

19:                                               ; preds = %18, %13
  %20 = phi i32 [ %.pre, %18 ], [ %17, %13 ]
  store i32 0, ptr %7, align 4
  %21 = load ptr, ptr %10, align 8
  %22 = sext i32 %20 to i64
  %23 = getelementptr i32, ptr %21, i64 %22
  %24 = getelementptr i8, ptr %23, i64 -4
  %25 = load i32, ptr %24, align 4
  %26 = getelementptr inbounds nuw i8, ptr %0, i64 12
  %27 = call noundef i32 @_ZNK14dtNavMeshQuery16moveAlongSurfaceEjPKfS1_PK13dtQueryFilterPfPjPii(ptr noundef nonnull align 8 dereferenceable(104) %2, i32 noundef %25, ptr noundef nonnull %26, ptr noundef %1, ptr noundef %3, ptr noundef nonnull %5, ptr noundef nonnull %6, ptr noundef nonnull %7, i32 noundef 16)
  %28 = and i32 %27, 1073741824
  %29 = icmp ne i32 %28, 0
  br i1 %29, label %30, label %74

30:                                               ; preds = %19
  %31 = load ptr, ptr %10, align 8
  %32 = load i32, ptr %16, align 8
  %33 = getelementptr inbounds nuw i8, ptr %0, i64 36
  %34 = load i32, ptr %33, align 4
  %35 = load i32, ptr %7, align 4
  %36 = icmp sgt i32 %32, 0
  %37 = icmp sgt i32 %35, 0
  %or.cond75.i = and i1 %36, %37
  br i1 %or.cond75.i, label %.preheader.us.preheader.i, label %_Z23dtMergeCorridorEndMovedPjiiPKji.exit

.preheader.us.preheader.i:                        ; preds = %30
  %38 = zext nneg i32 %35 to i64
  %39 = zext nneg i32 %32 to i64
  br label %.preheader.us.i

.preheader.us.i:                                  ; preds = %._crit_edge.us.i, %.preheader.us.preheader.i
  %indvars.iv69.i = phi i64 [ 0, %.preheader.us.preheader.i ], [ %indvars.iv.next70.i, %._crit_edge.us.i ]
  %.03657.us.i = phi i32 [ -1, %.preheader.us.preheader.i ], [ %.3.us.i, %._crit_edge.us.i ]
  %.03756.us.i = phi i32 [ -1, %.preheader.us.preheader.i ], [ %.340.us.i, %._crit_edge.us.i ]
  %40 = getelementptr inbounds nuw i32, ptr %31, i64 %indvars.iv69.i
  %41 = load i32, ptr %40, align 4
  %42 = trunc nuw nsw i64 %indvars.iv69.i to i32
  br label %43

43:                                               ; preds = %43, %.preheader.us.i
  %indvars.iv.i = phi i64 [ %38, %.preheader.us.i ], [ %indvars.iv.next.i, %43 ]
  %.252.us.i = phi i32 [ %.03657.us.i, %.preheader.us.i ], [ %.3.us.i, %43 ]
  %.23951.us.i = phi i32 [ %.03756.us.i, %.preheader.us.i ], [ %.340.us.i, %43 ]
  %.04349.us.i = phi i1 [ false, %.preheader.us.i ], [ %.144.us.i, %43 ]
  %indvars.iv.next.i = add nsw i64 %indvars.iv.i, -1
  %44 = getelementptr inbounds nuw i32, ptr %6, i64 %indvars.iv.next.i
  %45 = load i32, ptr %44, align 4
  %46 = icmp eq i32 %41, %45
  %.144.us.i = select i1 %46, i1 true, i1 %.04349.us.i
  %47 = trunc nuw nsw i64 %indvars.iv.next.i to i32
  %.340.us.i = select i1 %46, i32 %47, i32 %.23951.us.i
  %.3.us.i = select i1 %46, i32 %42, i32 %.252.us.i
  %48 = icmp sgt i64 %indvars.iv.i, 1
  br i1 %48, label %43, label %._crit_edge.us.i, !llvm.loop !8

._crit_edge.us.i:                                 ; preds = %43
  %indvars.iv.next70.i = add nuw nsw i64 %indvars.iv69.i, 1
  %49 = icmp samesign uge i64 %indvars.iv.next70.i, %39
  %or.cond67.not.i = select i1 %.144.us.i, i1 true, i1 %49
  br i1 %or.cond67.not.i, label %._crit_edge58.i, label %.preheader.us.i, !llvm.loop !9

._crit_edge58.i:                                  ; preds = %._crit_edge.us.i
  %50 = icmp eq i32 %.3.us.i, -1
  %51 = icmp eq i32 %.340.us.i, -1
  %or.cond.i = select i1 %50, i1 true, i1 %51
  br i1 %or.cond.i, label %_Z23dtMergeCorridorEndMovedPjiiPKji.exit, label %52

52:                                               ; preds = %._crit_edge58.i
  %53 = add nuw nsw i32 %.3.us.i, 1
  %54 = add nuw nsw i32 %.340.us.i, 1
  %55 = sub nsw i32 %35, %54
  %56 = sub nsw i32 %34, %53
  %57 = call noundef i32 @llvm.smin.i32(i32 %55, i32 %56)
  %58 = call noundef ptr @_Z21dtAssertFailGetCustomv()
  %59 = add nsw i32 %57, %53
  %.not47.i = icmp eq i32 %57, 0
  br i1 %.not47.i, label %_Z23dtMergeCorridorEndMovedPjiiPKji.exit, label %60

60:                                               ; preds = %52
  %61 = sext i32 %53 to i64
  %62 = getelementptr inbounds i32, ptr %31, i64 %61
  %63 = zext nneg i32 %54 to i64
  %64 = getelementptr inbounds nuw i32, ptr %6, i64 %63
  %65 = sext i32 %57 to i64
  %66 = shl nsw i64 %65, 2
  call void @llvm.memcpy.p0.p0.i64(ptr nonnull align 4 %62, ptr nonnull readonly align 4 %64, i64 %66, i1 false)
  br label %_Z23dtMergeCorridorEndMovedPjiiPKji.exit

_Z23dtMergeCorridorEndMovedPjiiPKji.exit:         ; preds = %30, %._crit_edge58.i, %52, %60
  %.0.i = phi i32 [ %32, %._crit_edge58.i ], [ %59, %60 ], [ %59, %52 ], [ %32, %30 ]
  store i32 %.0.i, ptr %16, align 8
  %67 = load float, ptr %5, align 4
  store float %67, ptr %26, align 4
  %68 = getelementptr inbounds nuw i8, ptr %5, i64 4
  %69 = load float, ptr %68, align 4
  %70 = getelementptr inbounds nuw i8, ptr %0, i64 16
  store float %69, ptr %70, align 8
  %71 = getelementptr inbounds nuw i8, ptr %5, i64 8
  %72 = load float, ptr %71, align 4
  %73 = getelementptr inbounds nuw i8, ptr %0, i64 20
  store float %72, ptr %73, align 4
  br label %74

74:                                               ; preds = %19, %_Z23dtMergeCorridorEndMovedPjiiPKji.exit
  ret i1 %29
}